; Function Attrs: nounwind uwtable
define void @duckdb_je_arena_decay(ptr noundef %0, ptr noundef %1, i1 noundef zeroext %2, i1 noundef zeroext %3) local_unnamed_addr #0 {
  br i1 %3, label %5, label %7

5:                                                ; preds = %4
  %6 = getelementptr inbounds nuw i8, ptr %1, i64 72928
  tail call void @duckdb_je_sec_flush(ptr noundef %0, ptr noundef nonnull %6) #18
  br label %7

7:                                                ; preds = %5, %4
  %8 = getelementptr inbounds nuw i8, ptr %1, i64 69336
  %9 = getelementptr inbounds nuw i8, ptr %1, i64 72912
  %10 = load ptr, ptr %9, align 8, !tbaa !137
  %11 = getelementptr inbounds nuw i8, ptr %1, i64 10744
  %12 = tail call fastcc noundef zeroext i1 @arena_decay_impl(ptr noundef %0, ptr noundef %1, ptr noundef nonnull %8, ptr noundef %10, ptr noundef nonnull %11, i1 noundef zeroext %2, i1 noundef zeroext %3)
  br i1 %12, label %arena_decay_muzzy.exit, label %13

13:                                               ; preds = %7
  %14 = getelementptr inbounds nuw i8, ptr %1, i64 30296
  %15 = tail call i64 @duckdb_je_eset_npages_get(ptr noundef nonnull %14) #18
  %16 = getelementptr inbounds nuw i8, ptr %1, i64 39952
  %17 = tail call i64 @duckdb_je_eset_npages_get(ptr noundef nonnull %16) #18
  %18 = sub i64 0, %15
  %19 = icmp eq i64 %17, %18
  br i1 %19, label %pa_shard_dont_decay_muzzy.exit.i, label %pa_shard_dont_decay_muzzy.exit.thread.i

pa_shard_dont_decay_muzzy.exit.i:                 ; preds = %13
  %20 = getelementptr inbounds nuw i8, ptr %1, i64 10688
  %21 = tail call i64 @duckdb_je_pac_decay_ms_get(ptr noundef nonnull %20, i32 noundef 2) #18
  %22 = icmp slt i64 %21, 1
  br i1 %22, label %arena_decay_muzzy.exit, label %pa_shard_dont_decay_muzzy.exit.thread.i

pa_shard_dont_decay_muzzy.exit.thread.i:          ; preds = %pa_shard_dont_decay_muzzy.exit.i, %13
  %23 = getelementptr inbounds nuw i8, ptr %1, i64 71120
  %24 = load ptr, ptr %9, align 8, !tbaa !137
  %25 = getelementptr inbounds nuw i8, ptr %24, i64 24
  %26 = getelementptr inbounds nuw i8, ptr %1, i64 30184
  %27 = tail call fastcc zeroext i1 @arena_decay_impl(ptr noundef %0, ptr noundef nonnull %1, ptr noundef nonnull %23, ptr noundef nonnull %25, ptr noundef nonnull %26, i1 noundef zeroext %2, i1 noundef zeroext %3)
  br label %arena_decay_muzzy.exit

arena_decay_muzzy.exit:                           ; preds = %pa_shard_dont_decay_muzzy.exit.thread.i, %pa_shard_dont_decay_muzzy.exit.i, %7
  ret void
}